target datalayout = "e-m:e-p270:32:32-p271:32:32-p272:64:64-i64:64-i128:128-f80:128-n8:16:32:64-S128"
target triple = "x86_64-pc-linux-gnu"

%struct.Py_complex = type { double, double }

@atanh_special_values = internal global [7 x [7 x %struct.Py_complex]] zeroinitializer, align 16

; Function Attrs: nounwind uwtable
define internal double @_Py_log1p(double noundef %0) #0 {
  %2 = alloca double, align 8
  %3 = alloca double, align 8
  store double %0, ptr %3, align 8, !tbaa !9
  %4 = load double, ptr %3, align 8, !tbaa !9
  %5 = fcmp oeq double %4, 0.000000e+00
  br i1 %5, label %6, label %8

6:                                                ; preds = %1
  %7 = load double, ptr %3, align 8, !tbaa !9
  store double %7, ptr %2, align 8
  br label %11

8:                                                ; preds = %1
  %9 = load double, ptr %3, align 8, !tbaa !9
  %10 = call double @log1p(double noundef %9) #8, !tbaa !11
  store double %10, ptr %2, align 8
  br label %11

11:                                               ; preds = %8, %6
  %12 = load double, ptr %2, align 8
  ret double %12
}

; Function Attrs: nounwind uwtable
define internal i32 @special_type(double noundef %0) #0 {
  %2 = alloca i32, align 4
  %3 = alloca double, align 8
  store double %0, ptr %3, align 8, !tbaa !9
  %4 = load double, ptr %3, align 8, !tbaa !9
  %5 = call i1 @llvm.is.fpclass.f64(double %4, i32 504)
  br i1 %5, label %6, label %21

6:                                                ; preds = %1
  %7 = load double, ptr %3, align 8, !tbaa !9
  %8 = fcmp une double %7, 0.000000e+00
  br i1 %8, label %9, label %15

9:                                                ; preds = %6
  %10 = load double, ptr %3, align 8, !tbaa !9
  %11 = call double @llvm.copysign.f64(double 1.000000e+00, double %10)
  %12 = fcmp oeq double %11, 1.000000e+00
  br i1 %12, label %13, label %14

13:                                               ; preds = %9
  store i32 4, ptr %2, align 4
  br label %31

14:                                               ; preds = %9
  store i32 1, ptr %2, align 4
  br label %31

15:                                               ; preds = %6
  %16 = load double, ptr %3, align 8, !tbaa !9
  %17 = call double @llvm.copysign.f64(double 1.000000e+00, double %16)
  %18 = fcmp oeq double %17, 1.000000e+00
  br i1 %18, label %19, label %20

19:                                               ; preds = %15
  store i32 3, ptr %2, align 4
  br label %31

20:                                               ; preds = %15
  store i32 2, ptr %2, align 4
  br label %31

21:                                               ; preds = %1
  %22 = load double, ptr %3, align 8, !tbaa !9
  %23 = call i1 @llvm.is.fpclass.f64(double %22, i32 3)
  br i1 %23, label %24, label %25

24:                                               ; preds = %21
  store i32 6, ptr %2, align 4
  br label %31

25:                                               ; preds = %21
  %26 = load double, ptr %3, align 8, !tbaa !9
  %27 = call double @llvm.copysign.f64(double 1.000000e+00, double %26)
  %28 = fcmp oeq double %27, 1.000000e+00
  br i1 %28, label %29, label %30

29:                                               ; preds = %25
  store i32 5, ptr %2, align 4
  br label %31

30:                                               ; preds = %25
  store i32 0, ptr %2, align 4
  br label %31

31:                                               ; preds = %30, %29, %24, %20, %19, %14, %13
  %32 = load i32, ptr %2, align 4
  ret i32 %32
}

; Function Attrs: nounwind uwtable
define internal { double, double } @cmath_atanh_impl(ptr noundef %0, double %1, double %2) #0 {
  %4 = alloca %struct.Py_complex, align 8
  %5 = alloca %struct.Py_complex, align 8
  %6 = alloca ptr, align 8
  %7 = alloca %struct.Py_complex, align 8
  %8 = alloca double, align 8
  %9 = alloca double, align 8
  %10 = alloca i32, align 4
  %11 = alloca %struct.Py_complex, align 8
  %12 = alloca %struct.Py_complex, align 8
  %13 = getelementptr inbounds nuw { double, double }, ptr %5, i32 0, i32 0
  store double %1, ptr %13, align 8
  %14 = getelementptr inbounds nuw { double, double }, ptr %5, i32 0, i32 1
  store double %2, ptr %14, align 8
  store ptr %0, ptr %6, align 8, !tbaa !3
  call void @llvm.lifetime.start.p0(i64 16, ptr %7) #8
  call void @llvm.lifetime.start.p0(i64 8, ptr %8) #8
  call void @llvm.lifetime.start.p0(i64 8, ptr %9) #8
  %15 = getelementptr inbounds nuw %struct.Py_complex, ptr %5, i32 0, i32 0
  %16 = load double, ptr %15, align 8, !tbaa !17
  %17 = call i1 @llvm.is.fpclass.f64(double %16, i32 504)
  br i1 %17, label %18, label %22

18:                                               ; preds = %3
  %19 = getelementptr inbounds nuw %struct.Py_complex, ptr %5, i32 0, i32 1
  %20 = load double, ptr %19, align 8, !tbaa !19
  %21 = call i1 @llvm.is.fpclass.f64(double %20, i32 504)
  br i1 %21, label %34, label %22

22:                                               ; preds = %18, %3
  %23 = call ptr @__errno_location() #9
  store i32 0, ptr %23, align 4, !tbaa !11
  %24 = getelementptr inbounds nuw %struct.Py_complex, ptr %5, i32 0, i32 0
  %25 = load double, ptr %24, align 8, !tbaa !17
  %26 = call i32 @special_type(double noundef %25)
  %27 = zext i32 %26 to i64
  %28 = getelementptr [7 x [7 x %struct.Py_complex]], ptr @atanh_special_values, i64 0, i64 %27
  %29 = getelementptr inbounds nuw %struct.Py_complex, ptr %5, i32 0, i32 1
  %30 = load double, ptr %29, align 8, !tbaa !19
  %31 = call i32 @special_type(double noundef %30)
  %32 = zext i32 %31 to i64
  %33 = getelementptr [7 x %struct.Py_complex], ptr %28, i64 0, i64 %32
  call void @llvm.memcpy.p0.p0.i64(ptr align 8 %4, ptr align 16 %33, i64 16, i1 false), !tbaa.struct !8
  store i32 1, ptr %10, align 4
  br label %176

34:                                               ; preds = %18
  %35 = getelementptr inbounds nuw %struct.Py_complex, ptr %5, i32 0, i32 0
  %36 = load double, ptr %35, align 8, !tbaa !17
  %37 = fcmp olt double %36, 0.000000e+00
  br i1 %37, label %38, label %67

38:                                               ; preds = %34
  %39 = load ptr, ptr %6, align 8, !tbaa !3
  %40 = getelementptr inbounds nuw { double, double }, ptr %5, i32 0, i32 0
  %41 = load double, ptr %40, align 8
  %42 = getelementptr inbounds nuw { double, double }, ptr %5, i32 0, i32 1
  %43 = load double, ptr %42, align 8
  %44 = call { double, double } @_Py_c_neg(double %41, double %43)
  %45 = getelementptr inbounds nuw { double, double }, ptr %12, i32 0, i32 0
  %46 = extractvalue { double, double } %44, 0
  store double %46, ptr %45, align 8
  %47 = getelementptr inbounds nuw { double, double }, ptr %12, i32 0, i32 1
  %48 = extractvalue { double, double } %44, 1
  store double %48, ptr %47, align 8
  %49 = getelementptr inbounds nuw { double, double }, ptr %12, i32 0, i32 0
  %50 = load double, ptr %49, align 8
  %51 = getelementptr inbounds nuw { double, double }, ptr %12, i32 0, i32 1
  %52 = load double, ptr %51, align 8
  %53 = call { double, double } @cmath_atanh_impl(ptr noundef %39, double %50, double %52)
  %54 = getelementptr inbounds nuw { double, double }, ptr %11, i32 0, i32 0
  %55 = extractvalue { double, double } %53, 0
  store double %55, ptr %54, align 8
  %56 = getelementptr inbounds nuw { double, double }, ptr %11, i32 0, i32 1
  %57 = extractvalue { double, double } %53, 1
  store double %57, ptr %56, align 8
  %58 = getelementptr inbounds nuw { double, double }, ptr %11, i32 0, i32 0
  %59 = load double, ptr %58, align 8
  %60 = getelementptr inbounds nuw { double, double }, ptr %11, i32 0, i32 1
  %61 = load double, ptr %60, align 8
  %62 = call { double, double } @_Py_c_neg(double %59, double %61)
  %63 = getelementptr inbounds nuw { double, double }, ptr %4, i32 0, i32 0
  %64 = extractvalue { double, double } %62, 0
  store double %64, ptr %63, align 8
  %65 = getelementptr inbounds nuw { double, double }, ptr %4, i32 0, i32 1
  %66 = extractvalue { double, double } %62, 1
  store double %66, ptr %65, align 8
  store i32 1, ptr %10, align 4
  br label %176

67:                                               ; preds = %34
  %68 = getelementptr inbounds nuw %struct.Py_complex, ptr %5, i32 0, i32 1
  %69 = load double, ptr %68, align 8, !tbaa !19
  %70 = call double @llvm.fabs.f64(double %69)
  store double %70, ptr %8, align 8, !tbaa !9
  %71 = getelementptr inbounds nuw %struct.Py_complex, ptr %5, i32 0, i32 0
  %72 = load double, ptr %71, align 8, !tbaa !17
  %73 = call double @sqrt(double noundef 0x7FCFFFFFFFFFFFFF) #8, !tbaa !11
  %74 = fcmp ogt double %72, %73
  br i1 %74, label %79, label %75

75:                                               ; preds = %67
  %76 = load double, ptr %8, align 8, !tbaa !9
  %77 = call double @sqrt(double noundef 0x7FCFFFFFFFFFFFFF) #8, !tbaa !11
  %78 = fcmp ogt double %76, %77
  br i1 %78, label %79, label %100

79:                                               ; preds = %75, %67
  %80 = getelementptr inbounds nuw %struct.Py_complex, ptr %5, i32 0, i32 0
  %81 = load double, ptr %80, align 8, !tbaa !17
  %82 = fdiv double %81, 2.000000e+00
  %83 = getelementptr inbounds nuw %struct.Py_complex, ptr %5, i32 0, i32 1
  %84 = load double, ptr %83, align 8, !tbaa !19
  %85 = fdiv double %84, 2.000000e+00
  %86 = call double @hypot(double noundef %82, double noundef %85) #8, !tbaa !11
  store double %86, ptr %9, align 8, !tbaa !9
  %87 = getelementptr inbounds nuw %struct.Py_complex, ptr %5, i32 0, i32 0
  %88 = load double, ptr %87, align 8, !tbaa !17
  %89 = fdiv double %88, 4.000000e+00
  %90 = load double, ptr %9, align 8, !tbaa !9
  %91 = fdiv double %89, %90
  %92 = load double, ptr %9, align 8, !tbaa !9
  %93 = fdiv double %91, %92
  %94 = getelementptr inbounds nuw %struct.Py_complex, ptr %7, i32 0, i32 0
  store double %93, ptr %94, align 8, !tbaa !17
  %95 = getelementptr inbounds nuw %struct.Py_complex, ptr %5, i32 0, i32 1
  %96 = load double, ptr %95, align 8, !tbaa !19
  %97 = call double @llvm.copysign.f64(double 0x3FF921FB54442D18, double %96)
  %98 = getelementptr inbounds nuw %struct.Py_complex, ptr %7, i32 0, i32 1
  store double %97, ptr %98, align 8, !tbaa !19
  %99 = call ptr @__errno_location() #9
  store i32 0, ptr %99, align 4, !tbaa !11
  br label %175

100:                                              ; preds = %75
  %101 = getelementptr inbounds nuw %struct.Py_complex, ptr %5, i32 0, i32 0
  %102 = load double, ptr %101, align 8, !tbaa !17
  %103 = fcmp oeq double %102, 1.000000e+00
  br i1 %103, label %104, label %137

104:                                              ; preds = %100
  %105 = load double, ptr %8, align 8, !tbaa !9
  %106 = call double @sqrt(double noundef 0x10000000000000) #8, !tbaa !11
  %107 = fcmp olt double %105, %106
  br i1 %107, label %108, label %137

108:                                              ; preds = %104
  %109 = load double, ptr %8, align 8, !tbaa !9
  %110 = fcmp oeq double %109, 0.000000e+00
  br i1 %110, label %111, label %117

111:                                              ; preds = %108
  %112 = getelementptr inbounds nuw %struct.Py_complex, ptr %7, i32 0, i32 0
  store double 0x7FF0000000000000, ptr %112, align 8, !tbaa !17
  %113 = getelementptr inbounds nuw %struct.Py_complex, ptr %5, i32 0, i32 1
  %114 = load double, ptr %113, align 8, !tbaa !19
  %115 = getelementptr inbounds nuw %struct.Py_complex, ptr %7, i32 0, i32 1
  store double %114, ptr %115, align 8, !tbaa !19
  %116 = call ptr @__errno_location() #9
  store i32 33, ptr %116, align 4, !tbaa !11
  br label %136

117:                                              ; preds = %108
  %118 = load double, ptr %8, align 8, !tbaa !9
  %119 = call double @sqrt(double noundef %118) #8, !tbaa !11
  %120 = load double, ptr %8, align 8, !tbaa !9
  %121 = call double @hypot(double noundef %120, double noundef 2.000000e+00) #8, !tbaa !11
  %122 = call double @sqrt(double noundef %121) #8, !tbaa !11
  %123 = fdiv double %119, %122
  %124 = call double @log(double noundef %123) #8, !tbaa !11
  %125 = fneg double %124
  %126 = getelementptr inbounds nuw %struct.Py_complex, ptr %7, i32 0, i32 0
  store double %125, ptr %126, align 8, !tbaa !17
  %127 = load double, ptr %8, align 8, !tbaa !9
  %128 = fneg double %127
  %129 = call double @atan2(double noundef 2.000000e+00, double noundef %128) #8, !tbaa !11
  %130 = fdiv double %129, 2.000000e+00
  %131 = getelementptr inbounds nuw %struct.Py_complex, ptr %5, i32 0, i32 1
  %132 = load double, ptr %131, align 8, !tbaa !19
  %133 = call double @llvm.copysign.f64(double %130, double %132)
  %134 = getelementptr inbounds nuw %struct.Py_complex, ptr %7, i32 0, i32 1
  store double %133, ptr %134, align 8, !tbaa !19
  %135 = call ptr @__errno_location() #9
  store i32 0, ptr %135, align 4, !tbaa !11
  br label %136

136:                                              ; preds = %117, %111
  br label %174

137:                                              ; preds = %104, %100
  %138 = getelementptr inbounds nuw %struct.Py_complex, ptr %5, i32 0, i32 0
  %139 = load double, ptr %138, align 8, !tbaa !17
  %140 = fmul double 4.000000e+00, %139
  %141 = getelementptr inbounds nuw %struct.Py_complex, ptr %5, i32 0, i32 0
  %142 = load double, ptr %141, align 8, !tbaa !17
  %143 = fsub double 1.000000e+00, %142
  %144 = getelementptr inbounds nuw %struct.Py_complex, ptr %5, i32 0, i32 0
  %145 = load double, ptr %144, align 8, !tbaa !17
  %146 = fsub double 1.000000e+00, %145
  %147 = load double, ptr %8, align 8, !tbaa !9
  %148 = load double, ptr %8, align 8, !tbaa !9
  %149 = fmul double %147, %148
  %150 = call double @llvm.fmuladd.f64(double %143, double %146, double %149)
  %151 = fdiv double %140, %150
  %152 = call double @_Py_log1p(double noundef %151)
  %153 = fdiv double %152, 4.000000e+00
  %154 = getelementptr inbounds nuw %struct.Py_complex, ptr %7, i32 0, i32 0
  store double %153, ptr %154, align 8, !tbaa !17
  %155 = getelementptr inbounds nuw %struct.Py_complex, ptr %5, i32 0, i32 1
  %156 = load double, ptr %155, align 8, !tbaa !19
  %157 = fmul double -2.000000e+00, %156
  %158 = getelementptr inbounds nuw %struct.Py_complex, ptr %5, i32 0, i32 0
  %159 = load double, ptr %158, align 8, !tbaa !17
  %160 = fsub double 1.000000e+00, %159
  %161 = getelementptr inbounds nuw %struct.Py_complex, ptr %5, i32 0, i32 0
  %162 = load double, ptr %161, align 8, !tbaa !17
  %163 = fadd double 1.000000e+00, %162
  %164 = load double, ptr %8, align 8, !tbaa !9
  %165 = load double, ptr %8, align 8, !tbaa !9
  %166 = fmul double %164, %165
  %167 = fneg double %166
  %168 = call double @llvm.fmuladd.f64(double %160, double %163, double %167)
  %169 = call double @atan2(double noundef %157, double noundef %168) #8, !tbaa !11
  %170 = fneg double %169
  %171 = fdiv double %170, 2.000000e+00
  %172 = getelementptr inbounds nuw %struct.Py_complex, ptr %7, i32 0, i32 1
  store double %171, ptr %172, align 8, !tbaa !19
  %173 = call ptr @__errno_location() #9
  store i32 0, ptr %173, align 4, !tbaa !11
  br label %174

174:                                              ; preds = %137, %136
  br label %175

175:                                              ; preds = %174, %79
  call void @llvm.memcpy.p0.p0.i64(ptr align 8 %4, ptr align 8 %7, i64 16, i1 false), !tbaa.struct !8
  store i32 1, ptr %10, align 4
  br label %176

176:                                              ; preds = %175, %38, %22
  call void @llvm.lifetime.end.p0(i64 8, ptr %9) #8
  call void @llvm.lifetime.end.p0(i64 8, ptr %8) #8
  call void @llvm.lifetime.end.p0(i64 16, ptr %7) #8
  %177 = load { double, double }, ptr %4, align 8
  ret { double, double } %177
}