; Function Attrs: nounwind uwtable
define internal fastcc { double, double } @cmath_atanh_impl(double %0, double %1) unnamed_addr #0 {
  %3 = tail call double @llvm.fabs.f64(double %0)
  %4 = fcmp ueq double %3, 0x7FF0000000000000
  %5 = tail call double @llvm.fabs.f64(double %1)
  %6 = fcmp ueq double %5, 0x7FF0000000000000
  %or.cond = select i1 %4, i1 true, i1 %6
  br i1 %or.cond, label %7, label %34

7:                                                ; preds = %2
  %8 = tail call ptr @__errno_location() #12
  store i32 0, ptr %8, align 4, !tbaa !3
  br i1 %4, label %15, label %9

9:                                                ; preds = %7
  %10 = fcmp une double %0, 0.000000e+00
  %11 = tail call double @llvm.copysign.f64(double 1.000000e+00, double %0)
  %12 = fcmp oeq double %11, 1.000000e+00
  br i1 %10, label %13, label %14

13:                                               ; preds = %9
  %..i = select i1 %12, i64 4, i64 1
  br label %special_type.exit

14:                                               ; preds = %9
  %.7.i = select i1 %12, i64 3, i64 2
  br label %special_type.exit

15:                                               ; preds = %7
  %16 = fcmp uno double %0, 0.000000e+00
  br i1 %16, label %special_type.exit, label %17

17:                                               ; preds = %15
  %18 = tail call double @llvm.copysign.f64(double 1.000000e+00, double %0)
  %19 = fcmp oeq double %18, 1.000000e+00
  %.8.i = select i1 %19, i64 5, i64 0
  br label %special_type.exit

special_type.exit:                                ; preds = %13, %14, %15, %17
  %.0.i = phi i64 [ %..i, %13 ], [ %.7.i, %14 ], [ 6, %15 ], [ %.8.i, %17 ]
  br i1 %6, label %26, label %20

20:                                               ; preds = %special_type.exit
  %21 = fcmp une double %1, 0.000000e+00
  %22 = tail call double @llvm.copysign.f64(double 1.000000e+00, double %1)
  %23 = fcmp oeq double %22, 1.000000e+00
  br i1 %21, label %24, label %25

24:                                               ; preds = %20
  %..i44 = select i1 %23, i64 4, i64 1
  br label %special_type.exit46

25:                                               ; preds = %20
  %.7.i42 = select i1 %23, i64 3, i64 2
  br label %special_type.exit46

26:                                               ; preds = %special_type.exit
  %27 = fcmp uno double %1, 0.000000e+00
  br i1 %27, label %special_type.exit46, label %28

28:                                               ; preds = %26
  %29 = tail call double @llvm.copysign.f64(double 1.000000e+00, double %1)
  %30 = fcmp oeq double %29, 1.000000e+00
  %.8.i45 = select i1 %30, i64 5, i64 0
  br label %special_type.exit46

special_type.exit46:                              ; preds = %24, %25, %26, %28
  %.0.i43 = phi i64 [ %..i44, %24 ], [ %.7.i42, %25 ], [ 6, %26 ], [ %.8.i45, %28 ]
  %31 = getelementptr [7 x [7 x %struct.Py_complex]], ptr @atanh_special_values, i64 0, i64 %.0.i, i64 %.0.i43
  %.sroa.037.0.copyload = load double, ptr %31, align 16, !tbaa !7
  %.sroa.4.0..sroa_idx = getelementptr inbounds nuw i8, ptr %31, i64 8
  %.sroa.4.0.copyload = load double, ptr %.sroa.4.0..sroa_idx, align 8, !tbaa !7
  %32 = insertvalue { double, double } poison, double %.sroa.037.0.copyload, 0
  %33 = insertvalue { double, double } %32, double %.sroa.4.0.copyload, 1
  br label %common.ret2

34:                                               ; preds = %2
  %35 = fcmp olt double %0, 0.000000e+00
  br i1 %35, label %36, label %44

common.ret2:                                      ; preds = %86, %special_type.exit46, %36
  %common.ret2.op = phi { double, double } [ %43, %36 ], [ %89, %86 ], [ %33, %special_type.exit46 ]
  ret { double, double } %common.ret2.op

36:                                               ; preds = %34
  %37 = tail call { double, double } @_Py_c_neg(double %0, double %1) #11
  %38 = extractvalue { double, double } %37, 0
  %39 = extractvalue { double, double } %37, 1
  %40 = tail call fastcc { double, double } @cmath_atanh_impl(double %38, double %39)
  %41 = extractvalue { double, double } %40, 0
  %42 = extractvalue { double, double } %40, 1
  %43 = tail call { double, double } @_Py_c_neg(double %41, double %42) #11
  br label %common.ret2

44:                                               ; preds = %34
  %45 = fcmp ogt double %0, 0x5FDFFFFFFFFFFFFF
  %46 = fcmp ogt double %5, 0x5FDFFFFFFFFFFFFF
  %or.cond40 = select i1 %45, i1 true, i1 %46
  br i1 %or.cond40, label %47, label %55

47:                                               ; preds = %44
  %48 = fmul double %0, 5.000000e-01
  %49 = fmul double %1, 5.000000e-01
  %50 = tail call double @hypot(double noundef %48, double noundef %49) #11, !tbaa !3
  %51 = fmul double %0, 2.500000e-01
  %52 = fdiv double %51, %50
  %53 = fdiv double %52, %50
  %54 = tail call double @llvm.copysign.f64(double 0x3FF921FB54442D18, double %1)
  br label %86

55:                                               ; preds = %44
  %56 = fcmp oeq double %0, 1.000000e+00
  %57 = fcmp olt double %5, 0x2000000000000000
  %or.cond41 = select i1 %56, i1 %57, i1 false
  br i1 %or.cond41, label %58, label %70

58:                                               ; preds = %55
  %59 = fcmp oeq double %1, 0.000000e+00
  br i1 %59, label %86, label %60

60:                                               ; preds = %58
  %sqrt = tail call double @llvm.sqrt.f64(double %5)
  %61 = tail call double @hypot(double noundef %5, double noundef 2.000000e+00) #11, !tbaa !3
  %62 = tail call double @sqrt(double noundef %61) #11, !tbaa !3
  %63 = fdiv double %sqrt, %62
  %64 = tail call double @log(double noundef %63) #11, !tbaa !3
  %65 = fneg double %64
  %66 = fneg double %5
  %67 = tail call double @atan2(double noundef 2.000000e+00, double noundef %66) #11, !tbaa !3
  %68 = fmul double %67, 5.000000e-01
  %69 = tail call double @llvm.copysign.f64(double %68, double %1)
  br label %86

70:                                               ; preds = %55
  %71 = fmul double %0, 4.000000e+00
  %72 = fsub double 1.000000e+00, %0
  %73 = fmul double %1, %1
  %74 = tail call double @llvm.fmuladd.f64(double %72, double %72, double %73)
  %75 = fdiv double %71, %74
  %76 = fcmp oeq double %75, 0.000000e+00
  br i1 %76, label %_Py_log1p.exit, label %77

77:                                               ; preds = %70
  %78 = tail call double @log1p(double noundef %75) #11, !tbaa !3
  br label %_Py_log1p.exit

_Py_log1p.exit:                                   ; preds = %70, %77
  %.0.i47 = phi double [ %78, %77 ], [ %75, %70 ]
  %79 = fmul double %.0.i47, 2.500000e-01
  %80 = fmul double %1, -2.000000e+00
  %81 = fadd double %0, 1.000000e+00
  %82 = fneg double %73
  %83 = tail call double @llvm.fmuladd.f64(double %72, double %81, double %82)
  %84 = tail call double @atan2(double noundef %80, double noundef %83) #11, !tbaa !3
  %85 = fmul double %84, -5.000000e-01
  br label %86

86:                                               ; preds = %58, %_Py_log1p.exit, %60, %47
  %.sink = phi i32 [ 0, %_Py_log1p.exit ], [ 0, %60 ], [ 0, %47 ], [ 33, %58 ]
  %.sroa.014.0 = phi double [ %79, %_Py_log1p.exit ], [ %65, %60 ], [ %53, %47 ], [ 0x7FF0000000000000, %58 ]
  %.sroa.7.0 = phi double [ %85, %_Py_log1p.exit ], [ %69, %60 ], [ %54, %47 ], [ %1, %58 ]
  %87 = tail call ptr @__errno_location() #12
  store i32 %.sink, ptr %87, align 4, !tbaa !3
  %88 = insertvalue { double, double } poison, double %.sroa.014.0, 0
  %89 = insertvalue { double, double } %88, double %.sroa.7.0, 1
  br label %common.ret2
}